Certificate:
    Data:
        Version: 3 (0x2)
        Serial Number: 18 (0x12)
        Signature Algorithm: ecdsa-with-SHA384
        Issuer: C=PT, O=RESEARCH, CN=CA 01 of RESEARCH PROJECT
        Validity
            Not Before: Sep  6 15:08:07 2024 GMT
            Not After : Oct  8 15:08:07 2025 GMT
        Subject: CN=ppserver-gen.localnetwork.org
        Subject Public Key Info:
            Public Key Algorithm: id-ecPublicKey
                Public-Key: (256 bit)
                pub:
                    04:36:fc:e6:cd:57:c9:89:bd:0e:e6:ac:30:da:43:
                    ee:7d:d3:e6:84:7a:40:1b:81:9f:cc:d0:a4:d5:63:
                    66:86:dc:4a:3e:7d:01:e2:54:e5:0d:4f:1d:1c:31:
                    46:17:ba:1d:a2:71:f6:da:61:75:ff:1c:aa:f4:56:
                    f0:fd:29:65:30
                ASN1 OID: prime256v1
                NIST CURVE: P-256
        X509v3 extensions:
            X509v3 Basic Constraints: 
                CA:FALSE
            Netscape Cert Type: 
                SSL Server
            Netscape Comment: 
                Custom Certification Authority
            X509v3 Subject Key Identifier: 
                FD:C2:44:AA:13:30:05:6B:F8:44:DF:1A:04:11:E2:1D:36:C7:25:D1
            X509v3 Authority Key Identifier: 
                CD:04:4D:09:66:78:59:E7:C6:CA:08:DD:DD:61:84:3C:40:E6:7C:C6
            X509v3 Key Usage: critical
                Digital Signature, Non Repudiation, Key Encipherment
            X509v3 Extended Key Usage: 
                TLS Web Server Authentication
            X509v3 Subject Alternative Name: 
                DNS:ppserver-gen.localnetwork.org
    Signature Algorithm: ecdsa-with-SHA384
    Signature Value:
        40:46:02:21:00:9c:0e:dd:34:5a:f9:c9:f7:1a:44:78:54:f5:
        76:c1:0c:0c:12:2d:38:1b:74:31:c8:59:18:fc:21:25:3a:81:
        29:02:21:00:80:6f:80:96:7e:79:3a:69:f0:30:21:db:9b:92:
        68:2c:75:91:3d:0f:55:a4:00:2b:80:7c:03:67:fc:d7:ad:b3
-----BEGIN CERTIFICATE-----
MIICPDCCAeGgAwIBAgIBEjAKBggqhkjOPQQDAzBEMQswCQYDVQQGEwJQVDERMA8G
A1UECgwIUkVTRUFSQ0gxIjAgBgNVBAMMGUNBIDAxIG9mIFJFU0VBUkNIIFBST0pF
Q1QwHhcNMjQwOTA2MTUwODA3WhcNMjUxMDA4MTUwODA3WjAoMSYwJAYDVQQDDB1w
cHNlcnZlci1nZW4ubG9jYWxuZXR3b3JrLm9yZzBZMBMGByqGSM49AgEGCCqGSM49
AwEHA0IABDb85s1XyYm9DuasMNpD7n3T5oR6QBuBn8zQpNVjZobcSj59AeJU5Q1P
HRwxRhe6HaJx9tphdf8cqvRW8P0pZTCjgd8wgdwwCQYDVR0TBAIwADARBglghkgB
hvhCAQEEBAMCBkAwLQYJYIZIAYb4QgENBCAWHkN1c3RvbSBDZXJ0aWZpY2F0aW9u
IEF1dGhvcml0eTAdBgNVHQ4EFgQU/cJEqhMwBWv4RN8aBBHiHTbHJdEwHwYDVR0j
BBgwFoAUzQRNCWZ4WefGygjd3WGEPEDmfMYwDgYDVR0PAQH/BAQDAgXgMBMGA1Ud
JQQMMAoGCCsGAQUFBwMBMCgGA1UdEQQhMB+CHXBwc2VydmVyLWdlbi5sb2NhbG5l
dHdvcmsub3JnMAoGCCqGSM49BAMDA0kAQEYCIQCcDt00WvnJ9xpEeFT1dsEMDBIt
OBt0MchZGPwhJTqBKQIhAIBvgJZ+eTpp8DAh25uSaCx1kT0PVaQAK4B8A2f8162z
-----END CERTIFICATE-----

-----BEGIN CERTIFICATE-----
MIICYDCCAgWgAwIBAgIUBrVdRXDsfKBBr1ST+DXu2ysswKMwCgYIKoZIzj0EAwIw
RDELMAkGA1UEBhMCUFQxETAPBgNVBAoMCFJFU0VBUkNIMSIwIAYDVQQDDBlDQSAw
MSBvZiBSRVNFQVJDSCBQUk9KRUNUMB4XDTI0MDUzMTE2MzIzMVoXDTM0MDUyOTE2
MzIzMVowRDELMAkGA1UEBhMCUFQxETAPBgNVBAoMCFJFU0VBUkNIMSIwIAYDVQQD
DBlDQSAwMSBvZiBSRVNFQVJDSCBQUk9KRUNUMFkwEwYHKoZIzj0CAQYIKoZIzj0D
AQcDQgAEZwlps78MwASIdRCqA7n6YQXMHOKYcTcAVVKvF0tsGdHNk8YfDd6Xwdw4
Z20Ig79AhTbARhgHS65D3efBUAsblqOB1DCB0TAdBgNVHQ4EFgQUzQRNCWZ4WefG
ygjd3WGEPEDmfMYwfwYDVR0jBHgwdoAUzQRNCWZ4WefGygjd3WGEPEDmfMahSKRG
MEQxCzAJBgNVBAYTAlBUMREwDwYDVQQKDAhSRVNFQVJDSDEiMCAGA1UEAwwZQ0Eg
MDEgb2YgUkVTRUFSQ0ggUFJPSkVDVIIUBrVdRXDsfKBBr1ST+DXu2ysswKMwDwYD
VR0TBAgwBgEB/wIBADALBgNVHQ8EBAMCAf4wEQYJYIZIAYb4QgEBBAQDAgEGMAoG
CCqGSM49BAMCA0kAMEYCIQD7XzkYqhNWAHWixV8JD7eaLeyILcnlVsGdFh4n/M4+
qQIhAPlo3/YhMcIiB1fnXvoRXPlijpZZt/7FbwxrpvwRqFr3
-----END CERTIFICATE-----
